target datalayout = "e-m:e-p270:32:32-p271:32:32-p272:64:64-i64:64-i128:128-f80:128-n8:16:32:64-S128"
target triple = "x86_64-pc-linux-gnu"

%struct.ehooks_s = type { i32, %struct.atomic_p_t }
%struct.atomic_p_t = type { ptr }
%struct.base_block_s = type { i64, ptr, %struct.edata_s }
%struct.edata_s = type { i64, ptr, %union.anon, ptr, i64, %union.anon.0, %union.anon.2 }
%union.anon = type { i64 }
%union.anon.0 = type { %union.anon.1 }
%union.anon.1 = type { %struct.edata_heap_link_t }
%struct.edata_heap_link_t = type { %struct.phn_link_s }
%struct.phn_link_s = type { ptr, ptr, ptr }
%union.anon.2 = type { %struct.slab_data_s }
%struct.slab_data_s = type { [8 x i64] }
%struct.base_s = type { %struct.ehooks_s, %struct.ehooks_s, %struct.malloc_mutex_s, i8, i32, i64, ptr, [235 x %struct.edata_heap_t], i64, i64, i64, i64 }
%struct.malloc_mutex_s = type { %union.anon.4 }
%union.anon.4 = type { %struct.anon.5 }
%struct.anon.5 = type { %struct.mutex_prof_data_t, %union.pthread_mutex_t, %struct.atomic_b_t }
%struct.mutex_prof_data_t = type { %struct.nstime_t, %struct.nstime_t, i64, i64, i32, %struct.atomic_u32_t, i64, ptr, i64 }
%struct.nstime_t = type { i64 }
%struct.atomic_u32_t = type { i32 }
%union.pthread_mutex_t = type { %struct.__pthread_mutex_s }
%struct.__pthread_mutex_s = type { i32, i32, i32, i32, i32, i16, i16, %struct.__pthread_internal_list }
%struct.__pthread_internal_list = type { ptr, ptr }
%struct.atomic_b_t = type { i8 }
%struct.edata_heap_t = type { %struct.ph_s }
%struct.ph_s = type { ptr, i64 }

; Function Attrs: inlinehint nounwind uwtable
define internal i32 @ehooks_ind_get(ptr noundef %0) #3 {
  %2 = alloca ptr, align 8
  store ptr %0, ptr %2, align 8, !tbaa !41
  %3 = load ptr, ptr %2, align 8, !tbaa !41
  %4 = getelementptr inbounds nuw %struct.ehooks_s, ptr %3, i32 0, i32 0
  %5 = load i32, ptr %4, align 8, !tbaa !52
  ret i32 %5
}

; Function Attrs: inlinehint nounwind uwtable
define internal i32 @base_ind_get(ptr noundef %0) #3 {
  %2 = alloca ptr, align 8
  store ptr %0, ptr %2, align 8, !tbaa !4
  %3 = load ptr, ptr %2, align 8, !tbaa !4
  %4 = getelementptr inbounds nuw %struct.base_s, ptr %3, i32 0, i32 0
  %5 = call i32 @ehooks_ind_get(ptr noundef %4)
  ret i32 %5
}

; Function Attrs: nounwind uwtable
define hidden ptr @je_base_ehooks_get_for_metadata(ptr noundef %0) #0 {
  %2 = alloca ptr, align 8
  store ptr %0, ptr %2, align 8, !tbaa !4
  %3 = load ptr, ptr %2, align 8, !tbaa !4
  %4 = getelementptr inbounds nuw %struct.base_s, ptr %3, i32 0, i32 1
  ret ptr %4
}

; Function Attrs: nounwind uwtable
define hidden void @je_base_delete(ptr noundef %0, ptr noundef %1) #0 {
  %3 = alloca ptr, align 8
  %4 = alloca ptr, align 8
  %5 = alloca ptr, align 8
  %6 = alloca ptr, align 8
  %7 = alloca ptr, align 8
  store ptr %0, ptr %3, align 8, !tbaa !9
  store ptr %1, ptr %4, align 8, !tbaa !4
  call void @llvm.lifetime.start.p0(i64 8, ptr %5) #8
  %8 = load ptr, ptr %4, align 8, !tbaa !4
  %9 = call ptr @je_base_ehooks_get_for_metadata(ptr noundef %8)
  store ptr %9, ptr %5, align 8, !tbaa !41
  call void @llvm.lifetime.start.p0(i64 8, ptr %6) #8
  %10 = load ptr, ptr %4, align 8, !tbaa !4
  %11 = getelementptr inbounds nuw %struct.base_s, ptr %10, i32 0, i32 6
  %12 = load ptr, ptr %11, align 8, !tbaa !33
  store ptr %12, ptr %6, align 8, !tbaa !21
  br label %13

13:                                               ; preds = %26, %2
  call void @llvm.lifetime.start.p0(i64 8, ptr %7) #8
  %14 = load ptr, ptr %6, align 8, !tbaa !21
  store ptr %14, ptr %7, align 8, !tbaa !21
  %15 = load ptr, ptr %7, align 8, !tbaa !21
  %16 = getelementptr inbounds nuw %struct.base_block_s, ptr %15, i32 0, i32 1
  %17 = load ptr, ptr %16, align 8, !tbaa !48
  store ptr %17, ptr %6, align 8, !tbaa !21
  %18 = load ptr, ptr %3, align 8, !tbaa !9
  %19 = load ptr, ptr %5, align 8, !tbaa !41
  %20 = load ptr, ptr %4, align 8, !tbaa !4
  %21 = call i32 @base_ind_get(ptr noundef %20)
  %22 = load ptr, ptr %7, align 8, !tbaa !21
  %23 = load ptr, ptr %7, align 8, !tbaa !21
  %24 = getelementptr inbounds nuw %struct.base_block_s, ptr %23, i32 0, i32 0
  %25 = load i64, ptr %24, align 8, !tbaa !23
  call void @base_unmap(ptr noundef %18, ptr noundef %19, i32 noundef %21, ptr noundef %22, i64 noundef %25)
  call void @llvm.lifetime.end.p0(i64 8, ptr %7) #8
  br label %26

26:                                               ; preds = %13
  %27 = load ptr, ptr %6, align 8, !tbaa !21
  %28 = icmp ne ptr %27, null
  br i1 %28, label %13, label %29, !llvm.loop !51

29:                                               ; preds = %26
  call void @llvm.lifetime.end.p0(i64 8, ptr %6) #8
  call void @llvm.lifetime.end.p0(i64 8, ptr %5) #8
  ret void
}