; Function Attrs: nounwind uwtable
define hidden void @je_base_delete(ptr noundef %0, ptr noundef readonly captures(none) %1) local_unnamed_addr #1 {
  %3 = getelementptr inbounds nuw i8, ptr %1, i64 16
  %4 = getelementptr inbounds nuw i8, ptr %1, i64 160
  %5 = load ptr, ptr %4, align 8, !tbaa !28
  br label %6

6:                                                ; preds = %6, %2
  %.0 = phi ptr [ %5, %2 ], [ %8, %6 ]
  %7 = getelementptr inbounds nuw i8, ptr %.0, i64 8
  %8 = load ptr, ptr %7, align 8, !tbaa !51
  %9 = load i64, ptr %.0, align 8, !tbaa !18
  tail call fastcc void @base_unmap(ptr noundef %0, ptr noundef nonnull %3, ptr noundef nonnull %.0, i64 noundef %9)
  %.not = icmp eq ptr %8, null
  br i1 %.not, label %10, label %6, !llvm.loop !60

10:                                               ; preds = %6
  ret void
}